; Function Attrs: mustprogress uwtable
define hidden void @_ZNSt3__16locale5__imp7releaseEv(ptr noundef nonnull align 8 dereferenceable(312) %0) local_unnamed_addr #2 align 2 {
  %.not = icmp eq ptr %0, @_ZNSt3__16locale5__imp19classic_locale_imp_E
  br i1 %.not, label %_ZNSt3__114__shared_count16__release_sharedB8ne210000Ev.exit, label %2

2:                                                ; preds = %1
  %3 = getelementptr inbounds nuw i8, ptr %0, i64 8
  %4 = atomicrmw add ptr %3, i64 -1 acq_rel, align 8
  %5 = icmp eq i64 %4, 0
  br i1 %5, label %6, label %_ZNSt3__114__shared_count16__release_sharedB8ne210000Ev.exit

6:                                                ; preds = %2
  %7 = load ptr, ptr %0, align 8, !tbaa !23
  %8 = getelementptr inbounds nuw i8, ptr %7, i64 16
  %9 = load ptr, ptr %8, align 8
  tail call void %9(ptr noundef nonnull align 8 dereferenceable(16) %0) #45
  br label %_ZNSt3__114__shared_count16__release_sharedB8ne210000Ev.exit

_ZNSt3__114__shared_count16__release_sharedB8ne210000Ev.exit: ; preds = %6, %2, %1
  ret void
}